target datalayout = "e-m:e-p270:32:32-p271:32:32-p272:64:64-i64:64-i128:128-f80:128-n8:16:32:64-S128"
target triple = "x86_64-pc-linux-gnu"

%struct.Abc_Frame_t_ = type { ptr, ptr, ptr, ptr, ptr, ptr, ptr, ptr, ptr, ptr, i32, i32, i32, i32, i32, ptr, float, float, i32, i32, ptr, ptr, ptr, double, double, ptr, ptr, ptr, ptr, ptr, ptr, ptr, ptr, ptr, ptr, ptr, ptr, float, ptr, i32, ptr, ptr, ptr, ptr, ptr, i32, i32, i32, i32, i32, i32, ptr, ptr, ptr, ptr, ptr, ptr, i32, i32, ptr, ptr, ptr, ptr, ptr, ptr, ptr, ptr, ptr, ptr, ptr, ptr, ptr, ptr, ptr, ptr, ptr, ptr, ptr, ptr, ptr, ptr, ptr, ptr, ptr, ptr, ptr, ptr, ptr, ptr }

@.str.27 = private unnamed_addr constant [4 x i8] c"yes\00", align 1
@.str.28 = private unnamed_addr constant [3 x i8] c"no\00", align 1
@.str.30 = private unnamed_addr constant [62 x i8] c"\09-v     : toggle printing verbose information [default = %s]\0A\00", align 1
@.str.31 = private unnamed_addr constant [35 x i8] c"\09-h     : print the command usage\0A\00", align 1
@.str.75 = private unnamed_addr constant [62 x i8] c"\09-s     : toggle blasting sequential elements [default = %s]\0A\00", align 1
@.str.86 = private unnamed_addr constant [4 x i8] c"svh\00", align 1
@.str.87 = private unnamed_addr constant [49 x i8] c"Cba_CommandBlast(): There is no current design.\0A\00", align 1
@.str.88 = private unnamed_addr constant [46 x i8] c"Cba_CommandBlast(): Bit-blasting has failed.\0A\00", align 1
@.str.89 = private unnamed_addr constant [22 x i8] c"usage: :blast [-svh]\0A\00", align 1
@.str.90 = private unnamed_addr constant [58 x i8] c"\09         performs bit-blasting of the word-level design\0A\00", align 1

; Function Attrs: inlinehint nounwind uwtable
define internal ptr @Cba_AbcGetMan(ptr noundef %0) #2 {
  %2 = alloca ptr, align 8
  store ptr %0, ptr %2, align 8, !tbaa !3
  %3 = load ptr, ptr %2, align 8, !tbaa !3
  %4 = getelementptr inbounds nuw %struct.Abc_Frame_t_, ptr %3, i32 0, i32 75
  %5 = load ptr, ptr %4, align 8, !tbaa !57
  ret ptr %5
}

; Function Attrs: nounwind uwtable
define internal i32 @Cba_CommandBlast(ptr noundef %0, i32 noundef %1, ptr noundef %2) #0 {
  %4 = alloca i32, align 4
  %5 = alloca ptr, align 8
  %6 = alloca i32, align 4
  %7 = alloca ptr, align 8
  %8 = alloca ptr, align 8
  %9 = alloca ptr, align 8
  %10 = alloca i32, align 4
  %11 = alloca i32, align 4
  %12 = alloca i32, align 4
  %13 = alloca i32, align 4
  store ptr %0, ptr %5, align 8, !tbaa !3
  store i32 %1, ptr %6, align 4, !tbaa !8
  store ptr %2, ptr %7, align 8, !tbaa !10
  call void @llvm.lifetime.start.p0(i64 8, ptr %8) #14
  store ptr null, ptr %8, align 8, !tbaa !22
  call void @llvm.lifetime.start.p0(i64 8, ptr %9) #14
  %14 = load ptr, ptr %5, align 8, !tbaa !3
  %15 = call ptr @Cba_AbcGetMan(ptr noundef %14)
  store ptr %15, ptr %9, align 8, !tbaa !12
  call void @llvm.lifetime.start.p0(i64 4, ptr %10) #14
  call void @llvm.lifetime.start.p0(i64 4, ptr %11) #14
  store i32 0, ptr %11, align 4, !tbaa !8
  call void @llvm.lifetime.start.p0(i64 4, ptr %12) #14
  store i32 0, ptr %12, align 4, !tbaa !8
  call void (...) @Extra_UtilGetoptReset()
  br label %16

16:                                               ; preds = %31, %3
  %17 = load i32, ptr %6, align 4, !tbaa !8
  %18 = load ptr, ptr %7, align 8, !tbaa !10
  %19 = call i32 @Extra_UtilGetopt(i32 noundef %17, ptr noundef %18, ptr noundef @.str.86)
  store i32 %19, ptr %10, align 4, !tbaa !8
  %20 = icmp ne i32 %19, -1
  br i1 %20, label %21, label %32

21:                                               ; preds = %16
  %22 = load i32, ptr %10, align 4, !tbaa !8
  switch i32 %22, label %30 [
    i32 115, label %23
    i32 118, label %26
    i32 104, label %29
  ]

23:                                               ; preds = %21
  %24 = load i32, ptr %11, align 4, !tbaa !8
  %25 = xor i32 %24, 1
  store i32 %25, ptr %11, align 4, !tbaa !8
  br label %31

26:                                               ; preds = %21
  %27 = load i32, ptr %12, align 4, !tbaa !8
  %28 = xor i32 %27, 1
  store i32 %28, ptr %12, align 4, !tbaa !8
  br label %31

29:                                               ; preds = %21
  br label %47

30:                                               ; preds = %21
  br label %47

31:                                               ; preds = %26, %23
  br label %16, !llvm.loop !41

32:                                               ; preds = %16
  %33 = load ptr, ptr %9, align 8, !tbaa !12
  %34 = icmp eq ptr %33, null
  br i1 %34, label %35, label %36

35:                                               ; preds = %32
  call void (i32, ptr, ...) @Abc_Print(i32 noundef 1, ptr noundef @.str.87)
  store i32 0, ptr %4, align 4
  store i32 1, ptr %13, align 4
  br label %54

36:                                               ; preds = %32
  %37 = load ptr, ptr %9, align 8, !tbaa !12
  %38 = load i32, ptr %11, align 4, !tbaa !8
  %39 = load i32, ptr %12, align 4, !tbaa !8
  %40 = call ptr @Cba_ManBlast(ptr noundef %37, i32 noundef 0, i32 noundef %38, i32 noundef %39)
  store ptr %40, ptr %8, align 8, !tbaa !22
  %41 = load ptr, ptr %8, align 8, !tbaa !22
  %42 = icmp eq ptr %41, null
  br i1 %42, label %43, label %44

43:                                               ; preds = %36
  call void (i32, ptr, ...) @Abc_Print(i32 noundef 1, ptr noundef @.str.88)
  store i32 0, ptr %4, align 4
  store i32 1, ptr %13, align 4
  br label %54

44:                                               ; preds = %36
  %45 = load ptr, ptr %5, align 8, !tbaa !3
  %46 = load ptr, ptr %8, align 8, !tbaa !22
  call void @Abc_FrameUpdateGia(ptr noundef %45, ptr noundef %46)
  store i32 0, ptr %4, align 4
  store i32 1, ptr %13, align 4
  br label %54

47:                                               ; preds = %30, %29
  call void (i32, ptr, ...) @Abc_Print(i32 noundef -2, ptr noundef @.str.89)
  call void (i32, ptr, ...) @Abc_Print(i32 noundef -2, ptr noundef @.str.90)
  %48 = load i32, ptr %11, align 4, !tbaa !8
  %49 = icmp ne i32 %48, 0
  %50 = select i1 %49, ptr @.str.27, ptr @.str.28
  call void (i32, ptr, ...) @Abc_Print(i32 noundef -2, ptr noundef @.str.75, ptr noundef %50)
  %51 = load i32, ptr %12, align 4, !tbaa !8
  %52 = icmp ne i32 %51, 0
  %53 = select i1 %52, ptr @.str.27, ptr @.str.28
  call void (i32, ptr, ...) @Abc_Print(i32 noundef -2, ptr noundef @.str.30, ptr noundef %53)
  call void (i32, ptr, ...) @Abc_Print(i32 noundef -2, ptr noundef @.str.31)
  store i32 1, ptr %4, align 4
  store i32 1, ptr %13, align 4
  br label %54

54:                                               ; preds = %47, %44, %43, %35
  call void @llvm.lifetime.end.p0(i64 4, ptr %12) #14
  call void @llvm.lifetime.end.p0(i64 4, ptr %11) #14
  call void @llvm.lifetime.end.p0(i64 4, ptr %10) #14
  call void @llvm.lifetime.end.p0(i64 8, ptr %9) #14
  call void @llvm.lifetime.end.p0(i64 8, ptr %8) #14
  %55 = load i32, ptr %4, align 4
  ret i32 %55
}