; Function Attrs: nounwind uwtable
define internal range(i32 0, 2) i32 @Cba_CommandBlast(ptr noundef %0, i32 noundef %1, ptr noundef %2) #0 {
  %4 = getelementptr i8, ptr %0, i64 536
  %.val = load ptr, ptr %4, align 8, !tbaa !63
  tail call void (...) @Extra_UtilGetoptReset() #19
  br label %.outer

.outer:                                           ; preds = %7, %3
  %.015.ph = phi i32 [ %8, %7 ], [ 0, %3 ]
  %.0.ph = phi i32 [ %.0, %7 ], [ 0, %3 ]
  br label %5

5:                                                ; preds = %.outer, %9
  %.0 = phi i32 [ %10, %9 ], [ %.0.ph, %.outer ]
  %6 = tail call i32 @Extra_UtilGetopt(i32 noundef %1, ptr noundef %2, ptr noundef nonnull @.str.86) #19
  switch i32 %6, label %19 [
    i32 -1, label %11
    i32 115, label %7
    i32 118, label %9
  ]

7:                                                ; preds = %5
  %8 = xor i32 %.015.ph, 1
  br label %.outer, !llvm.loop !85

9:                                                ; preds = %5
  %10 = xor i32 %.0, 1
  br label %5, !llvm.loop !85

11:                                               ; preds = %5
  %12 = icmp eq ptr %.val, null
  br i1 %12, label %13, label %14

13:                                               ; preds = %11
  tail call void (i32, ptr, ...) @Abc_Print(i32 noundef 1, ptr noundef nonnull @.str.87)
  br label %22

14:                                               ; preds = %11
  %15 = tail call ptr @Cba_ManBlast(ptr noundef nonnull %.val, i32 noundef 0, i32 noundef %.015.ph, i32 noundef %.0) #19
  %16 = icmp eq ptr %15, null
  br i1 %16, label %17, label %18

17:                                               ; preds = %14
  tail call void (i32, ptr, ...) @Abc_Print(i32 noundef 1, ptr noundef nonnull @.str.88)
  br label %22

18:                                               ; preds = %14
  tail call void @Abc_FrameUpdateGia(ptr noundef %0, ptr noundef nonnull %15) #19
  br label %22

19:                                               ; preds = %5
  tail call void (i32, ptr, ...) @Abc_Print(i32 noundef -2, ptr noundef nonnull @.str.89)
  tail call void (i32, ptr, ...) @Abc_Print(i32 noundef -2, ptr noundef nonnull @.str.90)
  %.not21 = icmp eq i32 %.015.ph, 0
  %20 = select i1 %.not21, ptr @.str.28, ptr @.str.27
  tail call void (i32, ptr, ...) @Abc_Print(i32 noundef -2, ptr noundef nonnull @.str.75, ptr noundef nonnull %20)
  %.not22 = icmp eq i32 %.0, 0
  %21 = select i1 %.not22, ptr @.str.28, ptr @.str.27
  tail call void (i32, ptr, ...) @Abc_Print(i32 noundef -2, ptr noundef nonnull @.str.30, ptr noundef nonnull %21)
  tail call void (i32, ptr, ...) @Abc_Print(i32 noundef -2, ptr noundef nonnull @.str.31)
  br label %22

22:                                               ; preds = %19, %18, %17, %13
  %.017 = phi i32 [ 1, %19 ], [ 0, %13 ], [ 0, %17 ], [ 0, %18 ]
  ret i32 %.017
}